target datalayout = "e-m:e-p270:32:32-p271:32:32-p272:64:64-i64:64-i128:128-f80:128-n8:16:32:64-S128"
target triple = "x86_64-pc-linux-gnu"

%struct.zstream = type { i64, i64, i64, i64, %struct.z_stream_s, ptr }
%struct.z_stream_s = type { ptr, i32, i64, ptr, i32, i64, ptr, ptr, ptr, ptr, ptr, i32, i64, i64 }
%struct.gzfile = type { %struct.zstream, i64, i32, i32, i64, i64, i64, i64, i32, i32, i64, ptr, ptr, ptr, ptr, i64, i64 }
%struct.RString = type { %struct.RBasic, i64, %union.anon }
%struct.RBasic = type { i64, i64 }
%union.anon = type { %struct.anon }
%struct.anon = type { ptr, %union.anon.0 }
%union.anon.0 = type { i64 }
%struct.anon.1 = type { [1 x i8] }
%struct.zstream_run_args = type { ptr, ptr, i64, i32, i32, i32, i32 }

@id_close = internal global i64 0, align 8

; Function Attrs: inlinehint nounwind sspstrong willreturn memory(read) uwtable
define internal i64 @RB_FL_TEST_RAW(i64 noundef %0, i64 noundef %1) #6 {
  %3 = alloca i64, align 8
  %4 = alloca i64, align 8
  store i64 %0, ptr %3, align 8, !tbaa !6
  store i64 %1, ptr %4, align 8, !tbaa !6
  %5 = load i64, ptr %3, align 8, !tbaa !6
  %6 = inttoptr i64 %5 to ptr
  %7 = getelementptr inbounds nuw %struct.RBasic, ptr %6, i32 0, i32 0
  %8 = load i64, ptr %7, align 8, !tbaa !91
  %9 = load i64, ptr %4, align 8, !tbaa !6
  %10 = and i64 %8, %9
  ret i64 %10
}

; Function Attrs: inlinehint nounwind sspstrong willreturn memory(read) uwtable
define internal zeroext i1 @RB_FL_ANY_RAW(i64 noundef %0, i64 noundef %1) #6 {
  %3 = alloca i64, align 8
  %4 = alloca i64, align 8
  store i64 %0, ptr %3, align 8, !tbaa !6
  store i64 %1, ptr %4, align 8, !tbaa !6
  %5 = load i64, ptr %3, align 8, !tbaa !6
  %6 = load i64, ptr %4, align 8, !tbaa !6
  %7 = call i64 @RB_FL_TEST_RAW(i64 noundef %5, i64 noundef %6) #25
  %8 = icmp ne i64 %7, 0
  ret i1 %8
}

; Function Attrs: inlinehint nounwind sspstrong willreturn memory(read, argmem: readwrite) uwtable
define internal void @rbimpl_rstring_getmem(ptr dead_on_unwind noalias writable sret(%struct.RString) align 8 %0, i64 noundef %1) #9 {
  %3 = alloca i64, align 8
  store i64 %1, ptr %3, align 8, !tbaa !6
  %4 = load i64, ptr %3, align 8, !tbaa !6
  %5 = call zeroext i1 @RB_FL_ANY_RAW(i64 noundef %4, i64 noundef 8192) #25
  br i1 %5, label %6, label %9

6:                                                ; preds = %2
  %7 = load i64, ptr %3, align 8, !tbaa !6
  %8 = inttoptr i64 %7 to ptr
  call void @llvm.memcpy.p0.p0.i64(ptr align 8 %0, ptr align 8 %8, i64 40, i1 false), !tbaa.struct !92
  br label %20

9:                                                ; preds = %2
  %10 = load i64, ptr %3, align 8, !tbaa !6
  %11 = call i64 @RSTRING_LEN(i64 noundef %10) #25
  %12 = getelementptr inbounds nuw %struct.RString, ptr %0, i32 0, i32 1
  store i64 %11, ptr %12, align 8, !tbaa !88
  %13 = load i64, ptr %3, align 8, !tbaa !6
  %14 = inttoptr i64 %13 to ptr
  %15 = getelementptr inbounds nuw %struct.RString, ptr %14, i32 0, i32 2
  %16 = getelementptr inbounds nuw %struct.anon.1, ptr %15, i32 0, i32 0
  %17 = getelementptr inbounds [1 x i8], ptr %16, i64 0, i64 0
  %18 = getelementptr inbounds nuw %struct.RString, ptr %0, i32 0, i32 2
  %19 = getelementptr inbounds nuw %struct.anon, ptr %18, i32 0, i32 0
  store ptr %17, ptr %19, align 8, !tbaa !68
  br label %20

20:                                               ; preds = %9, %6
  ret void
}

; Function Attrs: nounwind sspstrong uwtable
define internal void @gzfile_close(ptr noundef %0, i32 noundef %1) #0 {
  %3 = alloca ptr, align 8
  %4 = alloca i32, align 4
  %5 = alloca i64, align 8
  store ptr %0, ptr %3, align 8, !tbaa !57
  store i32 %1, ptr %4, align 4, !tbaa !10
  call void @llvm.lifetime.start.p0(i64 8, ptr %5) #23
  %6 = load ptr, ptr %3, align 8, !tbaa !57
  %7 = getelementptr inbounds nuw %struct.gzfile, ptr %6, i32 0, i32 1
  %8 = load i64, ptr %7, align 8, !tbaa !46
  store i64 %8, ptr %5, align 8, !tbaa !6
  %9 = load ptr, ptr %3, align 8, !tbaa !57
  %10 = getelementptr inbounds nuw %struct.gzfile, ptr %9, i32 0, i32 11
  %11 = load ptr, ptr %10, align 8, !tbaa !130
  %12 = load ptr, ptr %3, align 8, !tbaa !57
  call void %11(ptr noundef %12)
  %13 = load ptr, ptr %3, align 8, !tbaa !57
  %14 = getelementptr inbounds nuw %struct.gzfile, ptr %13, i32 0, i32 1
  store i64 4, ptr %14, align 8, !tbaa !46
  %15 = load ptr, ptr %3, align 8, !tbaa !57
  %16 = getelementptr inbounds nuw %struct.gzfile, ptr %15, i32 0, i32 5
  store i64 4, ptr %16, align 8, !tbaa !54
  %17 = load ptr, ptr %3, align 8, !tbaa !57
  %18 = getelementptr inbounds nuw %struct.gzfile, ptr %17, i32 0, i32 6
  store i64 4, ptr %18, align 8, !tbaa !55
  %19 = load i32, ptr %4, align 4, !tbaa !10
  %20 = icmp ne i32 %19, 0
  br i1 %20, label %21, label %30

21:                                               ; preds = %2
  %22 = load i64, ptr %5, align 8, !tbaa !6
  %23 = load i64, ptr @id_close, align 8, !tbaa !6
  %24 = call i32 @rb_respond_to(i64 noundef %22, i64 noundef %23)
  %25 = icmp ne i32 %24, 0
  br i1 %25, label %26, label %30

26:                                               ; preds = %21
  %27 = load i64, ptr %5, align 8, !tbaa !6
  %28 = load i64, ptr @id_close, align 8, !tbaa !6
  %29 = call i64 (i64, i64, i32, ...) @rb_funcall(i64 noundef %27, i64 noundef %28, i32 noundef 0)
  br label %30

30:                                               ; preds = %26, %21, %2
  call void @llvm.lifetime.end.p0(i64 8, ptr %5) #23
  ret void
}

; Function Attrs: nounwind sspstrong uwtable
define internal void @zstream_run(ptr noundef %0, ptr noundef %1, i64 noundef %2, i32 noundef %3) #0 {
  %5 = alloca ptr, align 8
  %6 = alloca ptr, align 8
  %7 = alloca i64, align 8
  %8 = alloca i32, align 4
  %9 = alloca %struct.zstream_run_args, align 8
  store ptr %0, ptr %5, align 8, !tbaa !21
  store ptr %1, ptr %6, align 8, !tbaa !19
  store i64 %2, ptr %7, align 8, !tbaa !6
  store i32 %3, ptr %8, align 4, !tbaa !10
  call void @llvm.lifetime.start.p0(i64 40, ptr %9) #23
  %10 = getelementptr inbounds nuw %struct.zstream_run_args, ptr %9, i32 0, i32 0
  %11 = load ptr, ptr %5, align 8, !tbaa !21
  store ptr %11, ptr %10, align 8, !tbaa !99
  %12 = getelementptr inbounds nuw %struct.zstream_run_args, ptr %9, i32 0, i32 1
  %13 = load ptr, ptr %6, align 8, !tbaa !19
  store ptr %13, ptr %12, align 8, !tbaa !101
  %14 = getelementptr inbounds nuw %struct.zstream_run_args, ptr %9, i32 0, i32 2
  %15 = load i64, ptr %7, align 8, !tbaa !6
  store i64 %15, ptr %14, align 8, !tbaa !102
  %16 = getelementptr inbounds nuw %struct.zstream_run_args, ptr %9, i32 0, i32 3
  %17 = load i32, ptr %8, align 4, !tbaa !10
  store i32 %17, ptr %16, align 8, !tbaa !103
  %18 = getelementptr inbounds nuw %struct.zstream_run_args, ptr %9, i32 0, i32 4
  store i32 0, ptr %18, align 4, !tbaa !104
  %19 = getelementptr inbounds nuw %struct.zstream_run_args, ptr %9, i32 0, i32 5
  store i32 0, ptr %19, align 8, !tbaa !105
  %20 = getelementptr inbounds nuw %struct.zstream_run_args, ptr %9, i32 0, i32 6
  %21 = load ptr, ptr %5, align 8, !tbaa !21
  %22 = getelementptr inbounds nuw %struct.zstream, ptr %21, i32 0, i32 0
  %23 = load i64, ptr %22, align 8, !tbaa !33
  %24 = and i64 %23, 16
  %25 = icmp ne i64 %24, 0
  br i1 %25, label %29, label %26

26:                                               ; preds = %4
  %27 = call i32 @rb_block_given_p()
  %28 = icmp ne i32 %27, 0
  br label %29

29:                                               ; preds = %26, %4
  %30 = phi i1 [ false, %4 ], [ %28, %26 ]
  %31 = zext i1 %30 to i32
  store i32 %31, ptr %20, align 4, !tbaa !106
  %32 = ptrtoint ptr %9 to i64
  %33 = ptrtoint ptr %9 to i64
  %34 = call i64 @rb_ensure(ptr noundef @zstream_run_try, i64 noundef %32, ptr noundef @zstream_run_ensure, i64 noundef %33)
  %35 = getelementptr inbounds nuw %struct.zstream_run_args, ptr %9, i32 0, i32 5
  %36 = load i32, ptr %35, align 8, !tbaa !105
  %37 = icmp ne i32 %36, 0
  br i1 %37, label %38, label %41

38:                                               ; preds = %29
  %39 = getelementptr inbounds nuw %struct.zstream_run_args, ptr %9, i32 0, i32 5
  %40 = load i32, ptr %39, align 8, !tbaa !105
  call void @rb_jump_tag(i32 noundef %40) #26
  unreachable

41:                                               ; preds = %29
  call void @llvm.lifetime.end.p0(i64 40, ptr %9) #23
  ret void
}

; Function Attrs: inlinehint nounwind sspstrong uwtable
define internal ptr @RSTRING_PTR(i64 noundef %0) #3 {
  %2 = alloca i64, align 8
  %3 = alloca ptr, align 8
  %4 = alloca %struct.RString, align 8
  store i64 %0, ptr %2, align 8, !tbaa !6
  call void @llvm.lifetime.start.p0(i64 8, ptr %3) #23
  %5 = load i64, ptr %2, align 8, !tbaa !6
  call void @rbimpl_rstring_getmem(ptr dead_on_unwind writable sret(%struct.RString) align 8 %4, i64 noundef %5) #28
  %6 = getelementptr inbounds nuw %struct.RString, ptr %4, i32 0, i32 2
  %7 = getelementptr inbounds nuw %struct.anon, ptr %6, i32 0, i32 0
  %8 = load ptr, ptr %7, align 8, !tbaa !68
  store ptr %8, ptr %3, align 8, !tbaa !19
  %9 = load ptr, ptr %3, align 8, !tbaa !19
  call void @llvm.lifetime.end.p0(i64 8, ptr %3) #23
  ret ptr %9
}

; Function Attrs: inlinehint nounwind sspstrong willreturn memory(read) uwtable
define internal i64 @RSTRING_LEN(i64 noundef %0) #6 {
  %2 = alloca i64, align 8
  store i64 %0, ptr %2, align 8, !tbaa !6
  %3 = load i64, ptr %2, align 8, !tbaa !6
  %4 = inttoptr i64 %3 to ptr
  %5 = getelementptr inbounds nuw %struct.RString, ptr %4, i32 0, i32 1
  %6 = load i64, ptr %5, align 8, !tbaa !88
  ret i64 %6
}

; Function Attrs: nounwind sspstrong uwtable
define internal i64 @zlib_gzip_run(i64 noundef %0) #0 {
  %2 = alloca i64, align 8
  %3 = alloca ptr, align 8
  %4 = alloca ptr, align 8
  %5 = alloca i64, align 8
  %6 = alloca i64, align 8
  %7 = alloca ptr, align 8
  store i64 %0, ptr %2, align 8, !tbaa !6
  call void @llvm.lifetime.start.p0(i64 8, ptr %3) #23
  %8 = load i64, ptr %2, align 8, !tbaa !6
  %9 = inttoptr i64 %8 to ptr
  store ptr %9, ptr %3, align 8, !tbaa !12
  call void @llvm.lifetime.start.p0(i64 8, ptr %4) #23
  %10 = load ptr, ptr %3, align 8, !tbaa !12
  %11 = getelementptr inbounds i64, ptr %10, i64 0
  %12 = load i64, ptr %11, align 8, !tbaa !6
  %13 = inttoptr i64 %12 to ptr
  store ptr %13, ptr %4, align 8, !tbaa !57
  call void @llvm.lifetime.start.p0(i64 8, ptr %5) #23
  %14 = load ptr, ptr %3, align 8, !tbaa !12
  %15 = getelementptr inbounds i64, ptr %14, i64 1
  %16 = load i64, ptr %15, align 8, !tbaa !6
  store i64 %16, ptr %5, align 8, !tbaa !6
  call void @llvm.lifetime.start.p0(i64 8, ptr %6) #23
  %17 = load ptr, ptr %4, align 8, !tbaa !57
  call void @gzfile_make_header(ptr noundef %17)
  %18 = load i64, ptr %5, align 8, !tbaa !6
  %19 = call i64 @RSTRING_LEN(i64 noundef %18) #25
  store i64 %19, ptr %6, align 8, !tbaa !6
  %20 = load i64, ptr %6, align 8, !tbaa !6
  %21 = icmp sgt i64 %20, 0
  br i1 %21, label %22, label %38

22:                                               ; preds = %1
  call void @llvm.lifetime.start.p0(i64 8, ptr %7) #23
  %23 = load i64, ptr %5, align 8, !tbaa !6
  %24 = call ptr @RSTRING_PTR(i64 noundef %23)
  store ptr %24, ptr %7, align 8, !tbaa !19
  %25 = load ptr, ptr %4, align 8, !tbaa !57
  %26 = getelementptr inbounds nuw %struct.gzfile, ptr %25, i32 0, i32 7
  %27 = load i64, ptr %26, align 8, !tbaa !50
  %28 = and i64 %27, 4294967295
  %29 = load ptr, ptr %7, align 8, !tbaa !19
  %30 = load i64, ptr %6, align 8, !tbaa !6
  %31 = call i64 @crc32_z(i64 noundef %28, ptr noundef %29, i64 noundef %30)
  %32 = load ptr, ptr %4, align 8, !tbaa !57
  %33 = getelementptr inbounds nuw %struct.gzfile, ptr %32, i32 0, i32 7
  store i64 %31, ptr %33, align 8, !tbaa !50
  %34 = load ptr, ptr %4, align 8, !tbaa !57
  %35 = getelementptr inbounds nuw %struct.gzfile, ptr %34, i32 0, i32 0
  %36 = load ptr, ptr %7, align 8, !tbaa !19
  %37 = load i64, ptr %6, align 8, !tbaa !6
  call void @zstream_run(ptr noundef %35, ptr noundef %36, i64 noundef %37, i32 noundef 0)
  call void @llvm.lifetime.end.p0(i64 8, ptr %7) #23
  br label %38

38:                                               ; preds = %22, %1
  %39 = load ptr, ptr %4, align 8, !tbaa !57
  call void @gzfile_close(ptr noundef %39, i32 noundef 0)
  %40 = load ptr, ptr %4, align 8, !tbaa !57
  %41 = getelementptr inbounds nuw %struct.gzfile, ptr %40, i32 0, i32 0
  %42 = call i64 @zstream_detach_buffer(ptr noundef %41)
  call void @llvm.lifetime.end.p0(i64 8, ptr %6) #23
  call void @llvm.lifetime.end.p0(i64 8, ptr %5) #23
  call void @llvm.lifetime.end.p0(i64 8, ptr %4) #23
  call void @llvm.lifetime.end.p0(i64 8, ptr %3) #23
  ret i64 %42
}