; Function Attrs: nounwind sspstrong uwtable
define internal i64 @zlib_gzip_run(i64 noundef %0) #0 {
  %2 = alloca %struct.zstream_run_args, align 8
  %3 = inttoptr i64 %0 to ptr
  %4 = load i64, ptr %3, align 8, !tbaa !6
  %5 = inttoptr i64 %4 to ptr
  %6 = getelementptr inbounds nuw i8, ptr %3, i64 8
  %7 = load i64, ptr %6, align 8, !tbaa !6
  tail call fastcc void @gzfile_make_header(ptr noundef %5)
  %8 = inttoptr i64 %7 to ptr
  %9 = getelementptr inbounds nuw i8, ptr %8, i64 16
  %10 = load i64, ptr %9, align 8, !tbaa !21
  %11 = icmp sgt i64 %10, 0
  br i1 %11, label %12, label %39

12:                                               ; preds = %1
  %13 = load i64, ptr %8, align 8, !tbaa !16, !noalias !362
  %14 = and i64 %13, 8192
  %.not.i.i = icmp eq i64 %14, 0
  %15 = getelementptr inbounds nuw i8, ptr %8, i64 24
  br i1 %.not.i.i, label %RSTRING_PTR.exit, label %16

16:                                               ; preds = %12
  %.sroa.2.0.copyload.i = load ptr, ptr %15, align 8
  br label %RSTRING_PTR.exit

RSTRING_PTR.exit:                                 ; preds = %12, %16
  %.sroa.2.0.i = phi ptr [ %.sroa.2.0.copyload.i, %16 ], [ %15, %12 ]
  %17 = getelementptr inbounds nuw i8, ptr %5, i64 192
  %18 = load i64, ptr %17, align 8, !tbaa !118
  %19 = and i64 %18, 4294967295
  %20 = tail call i64 @crc32_z(i64 noundef %19, ptr noundef %.sroa.2.0.i, i64 noundef %10) #18
  store i64 %20, ptr %17, align 8, !tbaa !118
  call void @llvm.lifetime.start.p0(i64 40, ptr nonnull %2) #18
  store ptr %5, ptr %2, align 8, !tbaa !61
  %21 = getelementptr inbounds nuw i8, ptr %2, i64 8
  store ptr %.sroa.2.0.i, ptr %21, align 8, !tbaa !64
  %22 = getelementptr inbounds nuw i8, ptr %2, i64 16
  store i64 %10, ptr %22, align 8, !tbaa !65
  %23 = getelementptr inbounds nuw i8, ptr %2, i64 24
  store i32 0, ptr %23, align 8, !tbaa !66
  %24 = getelementptr inbounds nuw i8, ptr %2, i64 28
  store i32 0, ptr %24, align 4, !tbaa !67
  %25 = getelementptr inbounds nuw i8, ptr %2, i64 32
  store i32 0, ptr %25, align 8, !tbaa !68
  %26 = getelementptr inbounds nuw i8, ptr %2, i64 36
  %27 = load i64, ptr %5, align 8, !tbaa !42
  %28 = and i64 %27, 16
  %.not.i = icmp eq i64 %28, 0
  br i1 %.not.i, label %29, label %33

29:                                               ; preds = %RSTRING_PTR.exit
  %30 = tail call i32 @rb_block_given_p() #18
  %31 = icmp ne i32 %30, 0
  %32 = zext i1 %31 to i32
  br label %33

33:                                               ; preds = %29, %RSTRING_PTR.exit
  %34 = phi i32 [ 0, %RSTRING_PTR.exit ], [ %32, %29 ]
  store i32 %34, ptr %26, align 4, !tbaa !69
  %35 = ptrtoint ptr %2 to i64
  %36 = call i64 @rb_ensure(ptr noundef nonnull @zstream_run_try, i64 noundef %35, ptr noundef nonnull @zstream_run_ensure, i64 noundef %35) #18
  %37 = load i32, ptr %25, align 8, !tbaa !68
  %.not4.i = icmp eq i32 %37, 0
  br i1 %.not4.i, label %zstream_run.exit, label %38

38:                                               ; preds = %33
  call void @rb_jump_tag(i32 noundef %37) #19
  unreachable

zstream_run.exit:                                 ; preds = %33
  call void @llvm.lifetime.end.p0(i64 40, ptr nonnull %2) #18
  br label %39

39:                                               ; preds = %zstream_run.exit, %1
  %40 = getelementptr inbounds nuw i8, ptr %5, i64 152
  %41 = getelementptr inbounds nuw i8, ptr %5, i64 216
  %42 = load ptr, ptr %41, align 8, !tbaa !131
  call void %42(ptr noundef %5) #18
  store i64 4, ptr %40, align 8, !tbaa !117
  %43 = getelementptr inbounds nuw i8, ptr %5, i64 176
  store i64 4, ptr %43, align 8, !tbaa !122
  %44 = getelementptr inbounds nuw i8, ptr %5, i64 184
  store i64 4, ptr %44, align 8, !tbaa !123
  %45 = call fastcc i64 @zstream_detach_buffer(ptr noundef %5)
  ret i64 %45
}